(lp0
(V\u65cb\u6da1
p1
(lp2
(lp3
F-1.6040955631399321
aF-4.9128919860627178
aa(lp4
F4.8148148148148149
aF-0.69518716577540118
aa(lp5
F-1.1945392491467572
aF5.400696864111497
aa(lp6
F-0.10238907849829282
aF5.1219512195121943
aa(lp7
F-2.2866894197952217
aF-4.2857142857142856
aa(lp8
F4.5392491467576797
aF-1.567944250871081
aa(lp9
F-0.034129692832763681
aF-3.519163763066202
aa(lp10
F1.6723549488054612
aF-3.031358885017422
aa(lp11
F-0.64846416382252592
aF-0.87108013937282358
aatp12
a(V\u4e09\u89d2\u5f62
p13
(lp14
(lp15
F-7.0648464163822524
aF-4.5644599303135891
aa(lp16
F5.2901023890784984
aF-4.5644599303135891
aa(lp17
F-0.85324232081911155
aF4.5644599303135873
aa(lp18
F-4.1296928327645048
aF-0.17421602787456436
aa(lp19
F2.2866894197952217
aF-0.31358885017421656
aa(lp20
F-0.85324232081911155
aF4.494773519163763
aa(lp21
F-7.0648464163822524
aF-4.5644599303135891
aa(lp22
F-0.98976109215016983
aF-4.5644599303135891
aa(lp23
F-4.0614334470989757
aF-0.24390243902439046
aa(lp24
F-0.98976109215016983
aF-4.5644599303135891
aa(lp25
F5.2901023890784984
aF-4.494773519163763
aa(lp26
F2.2866894197952217
aF-0.24390243902439046
aatp27
a(V\u7bad\u5934
p28
(lp29
(lp30
F-8.4300341296928334
aF3.7979094076655038
aa(lp31
F-8.4982935153583625
aF-3.7979094076655056
aa(lp32
F5.9044368600682606
aF1.0801393728222983
aa(lp33
F3.6518771331058026
aF4.0766550522648082
aa(lp34
F3.9931740614334483
aF-1.7770034843205575
aa(lp35
F-6.9965870307167233
aF0.52264808362369308
aa(lp36
F-3.2423208191126278
aF-0.52264808362369308
aa(lp37
F-4.1296928327645048
aF-3.2404181184668994
aa(lp38
F-1.2627986348122864
aF-3.3797909407665507
aa(lp39
F6.109215017064848
aF0.17421602787456436
aa(lp40
F2.6962457337883965
aF1.6376306620209053
aa(lp41
F2.969283276450513
aF0.034843205574912162
aatp42
a(V\u9f99
p43
(lp44
(lp45
F-1.945392491467576
aF-5.3310104529616726
aa(lp46
F6.109215017064848
aF-0.87108013937282358
aa(lp47
F-1.1945392491467572
aF5.400696864111497
aa(lp48
F-2.5597269624573373
aF-4.2160278745644604
aa(lp49
F5.4266211604095567
aF-2.1254355400696872
aa(lp50
F0.51194539249146764
aF4.9128919860627178
aa(lp51
F3.5836177474402735
aF8.397212543554005
aa(lp52
F4.0614334470989775
aF5.1219512195121943
aa(lp53
F8.5665529010238899
aF4.7038327526132395
aatp54
a(V\u8568\u7c7b\u690d\u7269
p55
(lp56
(lp57
F-4.3541944074567231
aF6.6272189349112427
aa(lp58
F-4.141145139813581
aF-7.5739644970414188
aa(lp59
F2.4101198402130493
aF6.508875739644969
aa(lp60
F-4.3009320905459383
aF6.508875739644969
aa(lp61
F-3.5019973368841537
aF-5.7988165680473358
aa(lp62
F1.3981358189081217
aF7.0414201183431953
aa(lp63
F-4.8335552596537941
aF-3.3136094674556205
aa(lp64
F-0.41278295605858872
aF-6.6863905325443778
aa(lp65
F-5.5259653794940071
aF-5.0295857988165675
aa(lp66
F1.984021304926765
aF-2.4260355029585794
aa(lp67
F-1.6910785619174433
aF-5.6804733727810639
aa(lp68
F3.1025299600532623
aF-3.6686390532544371
aa(lp69
F-0.838881491344873
aF-5.3254437869822473
aa(lp70
F-0.94540612516644451
aF-7.9289940828402354
aa(lp71
F-0.838881491344873
aF-7.2781065088757382
aatp72
a.